; Function Attrs: nounwind uwtable
define dso_local void @EventTriggerSQLDrop(ptr noundef %0) local_unnamed_addr #0 {
  %2 = alloca %struct.EventTriggerData, align 8
  %3 = alloca [1 x %struct.__jmp_buf_tag], align 16
  call void @llvm.lifetime.start.p0(i64 32, ptr nonnull %2) #16
  %4 = load i8, ptr @IsUnderPostmaster, align 1, !range !9, !noundef !10
  %5 = trunc nuw i8 %4 to i1
  br i1 %5, label %6, label %EventTriggerCommonSetup.exit.thread

6:                                                ; preds = %1
  %7 = load i8, ptr @event_triggers, align 1, !range !9, !noundef !10
  %8 = trunc nuw i8 %7 to i1
  br i1 %8, label %9, label %EventTriggerCommonSetup.exit.thread

9:                                                ; preds = %6
  %10 = load ptr, ptr @currentEventTriggerState, align 8
  %.not = icmp eq ptr %10, null
  br i1 %.not, label %EventTriggerCommonSetup.exit.thread, label %11

11:                                               ; preds = %9
  %12 = getelementptr inbounds nuw i8, ptr %10, i64 8
  %.val = load ptr, ptr %12, align 8
  %13 = icmp eq ptr %.val, null
  br i1 %13, label %EventTriggerCommonSetup.exit.thread, label %14

14:                                               ; preds = %11
  %15 = call ptr @EventCacheLookup(i32 noundef 2) #16
  %16 = icmp eq ptr %15, null
  br i1 %16, label %EventTriggerCommonSetup.exit.thread, label %17

17:                                               ; preds = %14
  %18 = call i32 @CreateCommandTag(ptr noundef %0) #16
  %19 = getelementptr inbounds nuw i8, ptr %15, i64 4
  %20 = load i32, ptr %19, align 4
  %.not31.i = icmp sgt i32 %20, 0
  br i1 %.not31.i, label %.lr.ph.i, label %EventTriggerCommonSetup.exit.thread

.lr.ph.i:                                         ; preds = %17
  %21 = getelementptr inbounds nuw i8, ptr %15, i64 16
  br label %.lr.ph.split.i

._crit_edge.i:                                    ; preds = %filter_event_trigger.exit.thread.i
  %22 = icmp eq ptr %.1.i, null
  br i1 %22, label %EventTriggerCommonSetup.exit.thread, label %44

.lr.ph.split.i:                                   ; preds = %filter_event_trigger.exit.thread.i, %.lr.ph.i
  %indvars.iv.i = phi i64 [ %indvars.iv.next.i, %filter_event_trigger.exit.thread.i ], [ 0, %.lr.ph.i ]
  %.02532.i = phi ptr [ %.1.i, %filter_event_trigger.exit.thread.i ], [ null, %.lr.ph.i ]
  %23 = load ptr, ptr %21, align 8
  %24 = getelementptr inbounds nuw %union.ListCell, ptr %23, i64 %indvars.iv.i
  %25 = load ptr, ptr %24, align 8
  %26 = load i32, ptr @SessionReplicationRole, align 4
  %27 = icmp eq i32 %26, 1
  %28 = getelementptr inbounds nuw i8, ptr %25, i64 4
  %29 = load i8, ptr %28, align 4
  br i1 %27, label %30, label %32

30:                                               ; preds = %.lr.ph.split.i
  %31 = icmp eq i8 %29, 79
  br i1 %31, label %filter_event_trigger.exit.thread.i, label %34

32:                                               ; preds = %.lr.ph.split.i
  %33 = icmp eq i8 %29, 82
  br i1 %33, label %filter_event_trigger.exit.thread.i, label %34

34:                                               ; preds = %32, %30
  %35 = getelementptr inbounds nuw i8, ptr %25, i64 8
  %36 = load ptr, ptr %35, align 8
  %37 = icmp eq ptr %36, null
  br i1 %37, label %filter_event_trigger.exit.i, label %38

38:                                               ; preds = %34
  %39 = call zeroext i1 @bms_is_member(i32 noundef %18, ptr noundef nonnull %36) #16
  br i1 %39, label %filter_event_trigger.exit.i, label %filter_event_trigger.exit.thread.i

filter_event_trigger.exit.i:                      ; preds = %38, %34
  %40 = load i32, ptr %25, align 8
  %41 = call ptr @lappend_oid(ptr noundef %.02532.i, i32 noundef %40) #16
  br label %filter_event_trigger.exit.thread.i

filter_event_trigger.exit.thread.i:               ; preds = %filter_event_trigger.exit.i, %38, %32, %30
  %.1.i = phi ptr [ %41, %filter_event_trigger.exit.i ], [ %.02532.i, %30 ], [ %.02532.i, %32 ], [ %.02532.i, %38 ]
  %indvars.iv.next.i = add nuw nsw i64 %indvars.iv.i, 1
  %42 = load i32, ptr %19, align 4
  %43 = sext i32 %42 to i64
  %.not.i = icmp slt i64 %indvars.iv.next.i, %43
  br i1 %.not.i, label %.lr.ph.split.i, label %._crit_edge.i, !llvm.loop !11

44:                                               ; preds = %._crit_edge.i
  store i32 440, ptr %2, align 8
  %45 = getelementptr inbounds nuw i8, ptr %2, i64 8
  store ptr @.str.5, ptr %45, align 8
  %46 = getelementptr inbounds nuw i8, ptr %2, i64 16
  store ptr %0, ptr %46, align 8
  %47 = getelementptr inbounds nuw i8, ptr %2, i64 24
  store i32 %18, ptr %47, align 8
  call void @CommandCounterIncrement() #16
  %48 = load ptr, ptr @currentEventTriggerState, align 8
  %49 = getelementptr inbounds nuw i8, ptr %48, i64 16
  store i8 1, ptr %49, align 8
  %50 = load ptr, ptr @PG_exception_stack, align 8
  %51 = load ptr, ptr @error_context_stack, align 8
  call void @llvm.lifetime.start.p0(i64 200, ptr nonnull %3) #16
  %52 = call i32 @__sigsetjmp(ptr noundef nonnull %3, i32 noundef 0) #19
  %.not10 = icmp eq i32 %52, 0
  br i1 %.not10, label %53, label %.critedge

53:                                               ; preds = %44
  store ptr %3, ptr @PG_exception_stack, align 8
  call fastcc void @EventTriggerInvoke(ptr noundef %.1.i, ptr noundef %2)
  %54 = load ptr, ptr @currentEventTriggerState, align 8
  %55 = getelementptr inbounds nuw i8, ptr %54, i64 16
  store i8 0, ptr %55, align 8
  store ptr %50, ptr @PG_exception_stack, align 8
  store ptr %51, ptr @error_context_stack, align 8
  call void @llvm.lifetime.end.p0(i64 200, ptr nonnull %3) #16
  call void @list_free(ptr noundef nonnull %.1.i) #16
  br label %EventTriggerCommonSetup.exit.thread

.critedge:                                        ; preds = %44
  store ptr %50, ptr @PG_exception_stack, align 8
  store ptr %51, ptr @error_context_stack, align 8
  %56 = load ptr, ptr @currentEventTriggerState, align 8
  %57 = getelementptr inbounds nuw i8, ptr %56, i64 16
  store i8 0, ptr %57, align 8
  call void @pg_re_throw() #20
  unreachable

EventTriggerCommonSetup.exit.thread:              ; preds = %17, %._crit_edge.i, %14, %9, %11, %1, %6, %53
  call void @llvm.lifetime.end.p0(i64 32, ptr nonnull %2) #16
  ret void
}